; Function Attrs: mustprogress nounwind uwtable
define hidden noundef i32 @_ZN10RegSpiller18compute_spill_areaERK13GrowableArrayI9VMStorageE(ptr nocapture noundef nonnull readonly align 8 dereferenceable(24) %0) local_unnamed_addr #4 align 2 {
  %2 = load i32, ptr %0, align 8
  %3 = icmp sgt i32 %2, 0
  br i1 %3, label %.lr.ph, label %._crit_edge

.lr.ph:                                           ; preds = %1
  %4 = getelementptr inbounds i8, ptr %0, i64 8
  br label %5

5:                                                ; preds = %.lr.ph, %5
  %indvars.iv = phi i64 [ 0, %.lr.ph ], [ %indvars.iv.next, %5 ]
  %.08 = phi i32 [ 0, %.lr.ph ], [ %9, %5 ]
  %6 = load ptr, ptr %4, align 8
  %7 = getelementptr inbounds %class.VMStorage, ptr %6, i64 %indvars.iv
  %.sroa.0.0.copyload = load i64, ptr %7, align 4
  %8 = tail call noundef i32 @_ZN10RegSpiller11pd_reg_sizeE9VMStorage(i64 %.sroa.0.0.copyload) #12
  %9 = add nsw i32 %8, %.08
  %indvars.iv.next = add nuw nsw i64 %indvars.iv, 1
  %10 = load i32, ptr %0, align 8
  %11 = sext i32 %10 to i64
  %12 = icmp slt i64 %indvars.iv.next, %11
  br i1 %12, label %5, label %._crit_edge, !llvm.loop !11

._crit_edge:                                      ; preds = %5, %1
  %.0.lcssa = phi i32 [ 0, %1 ], [ %9, %5 ]
  ret i32 %.0.lcssa
}